target datalayout = "e-m:e-p270:32:32-p271:32:32-p272:64:64-i64:64-i128:128-f80:128-n8:16:32:64-S128"
target triple = "x86_64-pc-linux-gnu"

%struct.ssl_connection_st = type { %struct.ssl_st, ptr, i32, ptr, ptr, ptr, i32, ptr, i32, i32, i32, i32, %struct.OSSL_TIME, %struct.OSSL_TIME, %struct.ossl_statem_st, i32, ptr, ptr, i64, i64, i64, %struct.ossl_quic_tls_callbacks_st, ptr, ptr, %struct.anon, ptr, ptr, ptr, i32, ptr, %struct.ssl_dane_st, ptr, ptr, ptr, ptr, i32, [64 x i8], [64 x i8], [64 x i8], [64 x i8], [64 x i8], [64 x i8], [64 x i8], [64 x i8], [64 x i8], [64 x i8], [64 x i8], [64 x i8], ptr, [64 x i8], i64, i32, i64, [32 x i8], ptr, ptr, ptr, i64, ptr, [32 x i8], i64, i32, ptr, ptr, i32, i32, ptr, ptr, ptr, ptr, ptr, i64, ptr, ptr, i64, i32, i32, i32, i64, i32, i32, i64, i64, i64, %struct.anon.1, ptr, i32, ptr, ptr, ptr, i32, ptr, ptr, ptr, i32, i32, i32, i32, ptr, i64, i32, ptr, %struct.srp_ctx_st, ptr, %struct.record_layer_st, ptr, ptr, ptr, ptr, i64, i32, i32, i32, i64, i64, i64, ptr, ptr, ptr, ptr, ptr, i64, ptr, i64, ptr, i64 }
%struct.ssl_st = type { i32, ptr, ptr, ptr, %struct.CRYPTO_REF_COUNT, ptr, %struct.crypto_ex_data_st }
%struct.CRYPTO_REF_COUNT = type { i32 }
%struct.crypto_ex_data_st = type { ptr, ptr }
%struct.OSSL_TIME = type { i64 }
%struct.ossl_statem_st = type { i32, i32, i32, i32, i32, i32, i32, i32, i32, i32, i32, i32, i32, ptr, ptr, ptr, i8 }
%struct.ossl_quic_tls_callbacks_st = type { ptr, ptr, ptr, ptr, ptr, ptr }
%struct.anon = type { i64, [32 x i8], [32 x i8], ptr, ptr, i32, i32, i32, i32, [2 x i8], i32, i32, i32, i32, %struct.anon.0, [64 x i8], i64, [64 x i8], i64, i32, i32, ptr, i64, ptr, i64, i32, i8, i8, i16, ptr, i16 }
%struct.anon.0 = type { [128 x i8], i64, [128 x i8], i64, i64, i32, ptr, ptr, [4 x ptr], [4 x i16], i64, i32, ptr, i64, ptr, i64, ptr, ptr, ptr, i32, i64, ptr, i32, ptr, i64, ptr, i64, ptr, i64, ptr, ptr, ptr, ptr, i64, i64, ptr, ptr, i32, i32, i32, i32 }
%struct.ssl_dane_st = type { ptr, ptr, ptr, ptr, ptr, i32, i32, i32, i64 }
%struct.anon.1 = type { [29 x i8], ptr, ptr, ptr, i32, ptr, i16, i32, %struct.anon.2, i32, i32, i64, ptr, i64, ptr, i64, ptr, i64, ptr, i64, ptr, i64, ptr, ptr, ptr, ptr, ptr, ptr, ptr, i64, ptr, i64, i32, i32, i32, i32, ptr, i64, i32, i8, i32, [4 x i32], i32, i8, i8, i8, i8 }
%struct.anon.2 = type { ptr, ptr, ptr, i64 }
%struct.srp_ctx_st = type { ptr, ptr, ptr, ptr, ptr, ptr, ptr, ptr, ptr, ptr, ptr, ptr, ptr, ptr, i32, i64 }
%struct.record_layer_st = type { ptr, ptr, ptr, ptr, ptr, ptr, ptr, ptr, i64, i32, i64, [4 x i8], i64, i64, i8, ptr, i32, ptr, ptr, ptr, i64, i64, i64, i64, [32 x %struct.tls_record_st] }
%struct.tls_record_st = type { ptr, i32, i8, ptr, ptr, i64, i64, i16, [8 x i8] }

@.str.1 = private unnamed_addr constant [27 x i8] c"../openssl/ssl/tls13_enc.c\00", align 1
@tls13_update_key.application_traffic = internal constant [12 x i8] c"traffic upd\00", align 1
@__func__.tls13_update_key = private unnamed_addr constant [17 x i8] c"tls13_update_key\00", align 1
@.str.18 = private unnamed_addr constant [24 x i8] c"SERVER_TRAFFIC_SECRET_N\00", align 1
@.str.19 = private unnamed_addr constant [24 x i8] c"CLIENT_TRAFFIC_SECRET_N\00", align 1

; Function Attrs: nounwind uwtable
define dso_local i32 @tls13_update_key(ptr noundef %0, i32 noundef %1) #0 {
  %3 = alloca i32, align 4
  %4 = alloca ptr, align 8
  %5 = alloca i32, align 4
  %6 = alloca ptr, align 8
  %7 = alloca i64, align 8
  %8 = alloca [64 x i8], align 16
  %9 = alloca ptr, align 8
  %10 = alloca [64 x i8], align 16
  %11 = alloca ptr, align 8
  %12 = alloca i64, align 8
  %13 = alloca i64, align 8
  %14 = alloca i64, align 8
  %15 = alloca i32, align 4
  %16 = alloca i32, align 4
  %17 = alloca i32, align 4
  %18 = alloca [16 x i8], align 16
  %19 = alloca ptr, align 8
  %20 = alloca i32, align 4
  store ptr %0, ptr %4, align 8, !tbaa !25
  store i32 %1, ptr %5, align 4, !tbaa !15
  call void @llvm.lifetime.start.p0(i64 8, ptr %6) #5
  %21 = load ptr, ptr %4, align 8, !tbaa !25
  %22 = call ptr @ssl_handshake_md(ptr noundef %21)
  store ptr %22, ptr %6, align 8, !tbaa !11
  call void @llvm.lifetime.start.p0(i64 8, ptr %7) #5
  call void @llvm.lifetime.start.p0(i64 64, ptr %8) #5
  call void @llvm.lifetime.start.p0(i64 8, ptr %9) #5
  call void @llvm.lifetime.start.p0(i64 64, ptr %10) #5
  call void @llvm.lifetime.start.p0(i64 8, ptr %11) #5
  call void @llvm.lifetime.start.p0(i64 8, ptr %12) #5
  call void @llvm.lifetime.start.p0(i64 8, ptr %13) #5
  call void @llvm.lifetime.start.p0(i64 8, ptr %14) #5
  call void @llvm.lifetime.start.p0(i64 4, ptr %15) #5
  store i32 0, ptr %15, align 4, !tbaa !15
  call void @llvm.lifetime.start.p0(i64 4, ptr %16) #5
  call void @llvm.lifetime.start.p0(i64 4, ptr %17) #5
  %23 = load i32, ptr %5, align 4, !tbaa !15
  %24 = icmp ne i32 %23, 0
  %25 = select i1 %24, i32 1, i32 0
  store i32 %25, ptr %17, align 4, !tbaa !15
  call void @llvm.lifetime.start.p0(i64 16, ptr %18) #5
  call void @llvm.lifetime.start.p0(i64 8, ptr %19) #5
  %26 = getelementptr inbounds [16 x i8], ptr %18, i64 0, i64 0
  store ptr %26, ptr %19, align 8, !tbaa !9
  %27 = load ptr, ptr %6, align 8, !tbaa !11
  %28 = call i32 @EVP_MD_get_size(ptr noundef %27)
  store i32 %28, ptr %16, align 4, !tbaa !15
  %29 = icmp sle i32 %28, 0
  br i1 %29, label %30, label %32

30:                                               ; preds = %2
  call void @ERR_new()
  call void @ERR_set_debug(ptr noundef @.str.1, i32 noundef 774, ptr noundef @__func__.tls13_update_key)
  %31 = load ptr, ptr %4, align 8, !tbaa !25
  call void (ptr, i32, i32, ptr, ...) @ossl_statem_fatal(ptr noundef %31, i32 noundef 80, i32 noundef 786691, ptr noundef null)
  store i32 0, ptr %3, align 4
  store i32 1, ptr %20, align 4
  br label %122

32:                                               ; preds = %2
  %33 = load i32, ptr %16, align 4, !tbaa !15
  %34 = sext i32 %33 to i64
  store i64 %34, ptr %7, align 8, !tbaa !13
  %35 = load ptr, ptr %4, align 8, !tbaa !25
  %36 = getelementptr inbounds nuw %struct.ssl_connection_st, ptr %35, i32 0, i32 8
  %37 = load i32, ptr %36, align 8, !tbaa !129
  %38 = load i32, ptr %5, align 4, !tbaa !15
  %39 = icmp eq i32 %37, %38
  br i1 %39, label %40, label %44

40:                                               ; preds = %32
  %41 = load ptr, ptr %4, align 8, !tbaa !25
  %42 = getelementptr inbounds nuw %struct.ssl_connection_st, ptr %41, i32 0, i32 45
  %43 = getelementptr inbounds [64 x i8], ptr %42, i64 0, i64 0
  store ptr %43, ptr %9, align 8, !tbaa !9
  br label %48

44:                                               ; preds = %32
  %45 = load ptr, ptr %4, align 8, !tbaa !25
  %46 = getelementptr inbounds nuw %struct.ssl_connection_st, ptr %45, i32 0, i32 44
  %47 = getelementptr inbounds [64 x i8], ptr %46, i64 0, i64 0
  store ptr %47, ptr %9, align 8, !tbaa !9
  br label %48

48:                                               ; preds = %44, %40
  %49 = load ptr, ptr %4, align 8, !tbaa !25
  %50 = load ptr, ptr %6, align 8, !tbaa !11
  %51 = load ptr, ptr %4, align 8, !tbaa !25
  %52 = getelementptr inbounds nuw %struct.ssl_connection_st, ptr %51, i32 0, i32 24
  %53 = getelementptr inbounds nuw %struct.anon, ptr %52, i32 0, i32 14
  %54 = getelementptr inbounds nuw %struct.anon.0, ptr %53, i32 0, i32 17
  %55 = load ptr, ptr %54, align 8, !tbaa !115
  %56 = load ptr, ptr %4, align 8, !tbaa !25
  %57 = getelementptr inbounds nuw %struct.ssl_connection_st, ptr %56, i32 0, i32 24
  %58 = getelementptr inbounds nuw %struct.anon, ptr %57, i32 0, i32 14
  %59 = getelementptr inbounds nuw %struct.anon.0, ptr %58, i32 0, i32 19
  %60 = load i32, ptr %59, align 8, !tbaa !118
  %61 = load ptr, ptr %4, align 8, !tbaa !25
  %62 = getelementptr inbounds nuw %struct.ssl_connection_st, ptr %61, i32 0, i32 24
  %63 = getelementptr inbounds nuw %struct.anon, ptr %62, i32 0, i32 14
  %64 = getelementptr inbounds nuw %struct.anon.0, ptr %63, i32 0, i32 18
  %65 = load ptr, ptr %64, align 8, !tbaa !117
  %66 = load ptr, ptr %9, align 8, !tbaa !9
  %67 = getelementptr inbounds [64 x i8], ptr %10, i64 0, i64 0
  %68 = getelementptr inbounds [64 x i8], ptr %8, i64 0, i64 0
  %69 = call i32 @derive_secret_key_and_iv(ptr noundef %49, ptr noundef %50, ptr noundef %55, i32 noundef %60, ptr noundef %65, ptr noundef %66, ptr noundef null, ptr noundef @tls13_update_key.application_traffic, i64 noundef 11, ptr noundef %67, ptr noundef %68, ptr noundef %12, ptr noundef %19, ptr noundef %13, ptr noundef %14)
  %70 = icmp ne i32 %69, 0
  br i1 %70, label %72, label %71

71:                                               ; preds = %48
  br label %112

72:                                               ; preds = %48
  %73 = load ptr, ptr %9, align 8, !tbaa !9
  %74 = getelementptr inbounds [64 x i8], ptr %10, i64 0, i64 0
  %75 = load i64, ptr %7, align 8, !tbaa !13
  call void @llvm.memcpy.p0.p0.i64(ptr align 1 %73, ptr align 16 %74, i64 %75, i1 false)
  %76 = load ptr, ptr %4, align 8, !tbaa !25
  %77 = load ptr, ptr %4, align 8, !tbaa !25
  %78 = getelementptr inbounds nuw %struct.ssl_connection_st, ptr %77, i32 0, i32 2
  %79 = load i32, ptr %78, align 8, !tbaa !134
  %80 = load i32, ptr %17, align 4, !tbaa !15
  %81 = load ptr, ptr %9, align 8, !tbaa !9
  %82 = load i64, ptr %7, align 8, !tbaa !13
  %83 = getelementptr inbounds [64 x i8], ptr %8, i64 0, i64 0
  %84 = load i64, ptr %12, align 8, !tbaa !13
  %85 = load ptr, ptr %19, align 8, !tbaa !9
  %86 = load i64, ptr %13, align 8, !tbaa !13
  %87 = load ptr, ptr %4, align 8, !tbaa !25
  %88 = getelementptr inbounds nuw %struct.ssl_connection_st, ptr %87, i32 0, i32 24
  %89 = getelementptr inbounds nuw %struct.anon, ptr %88, i32 0, i32 14
  %90 = getelementptr inbounds nuw %struct.anon.0, ptr %89, i32 0, i32 17
  %91 = load ptr, ptr %90, align 8, !tbaa !115
  %92 = load i64, ptr %14, align 8, !tbaa !13
  %93 = load ptr, ptr %6, align 8, !tbaa !11
  %94 = call i32 @ssl_set_new_record_layer(ptr noundef %76, i32 noundef %79, i32 noundef %80, i32 noundef 3, ptr noundef %81, i64 noundef %82, ptr noundef %83, i64 noundef %84, ptr noundef %85, i64 noundef %86, ptr noundef null, i64 noundef 0, ptr noundef %91, i64 noundef %92, i32 noundef 0, ptr noundef null, ptr noundef null, ptr noundef %93)
  %95 = icmp ne i32 %94, 0
  br i1 %95, label %97, label %96

96:                                               ; preds = %72
  br label %112

97:                                               ; preds = %72
  %98 = load ptr, ptr %4, align 8, !tbaa !25
  %99 = getelementptr inbounds nuw %struct.ssl_connection_st, ptr %98, i32 0, i32 8
  %100 = load i32, ptr %99, align 8, !tbaa !129
  %101 = load i32, ptr %5, align 4, !tbaa !15
  %102 = icmp eq i32 %100, %101
  %103 = select i1 %102, ptr @.str.18, ptr @.str.19
  store ptr %103, ptr %11, align 8, !tbaa !9
  %104 = load ptr, ptr %4, align 8, !tbaa !25
  %105 = load ptr, ptr %11, align 8, !tbaa !9
  %106 = getelementptr inbounds [64 x i8], ptr %10, i64 0, i64 0
  %107 = load i64, ptr %7, align 8, !tbaa !13
  %108 = call i32 @ssl_log_secret(ptr noundef %104, ptr noundef %105, ptr noundef %106, i64 noundef %107)
  %109 = icmp ne i32 %108, 0
  br i1 %109, label %111, label %110

110:                                              ; preds = %97
  br label %112

111:                                              ; preds = %97
  store i32 1, ptr %15, align 4, !tbaa !15
  br label %112

112:                                              ; preds = %111, %110, %96, %71
  %113 = getelementptr inbounds [64 x i8], ptr %8, i64 0, i64 0
  call void @OPENSSL_cleanse(ptr noundef %113, i64 noundef 64)
  %114 = getelementptr inbounds [64 x i8], ptr %10, i64 0, i64 0
  call void @OPENSSL_cleanse(ptr noundef %114, i64 noundef 64)
  %115 = load ptr, ptr %19, align 8, !tbaa !9
  %116 = getelementptr inbounds [16 x i8], ptr %18, i64 0, i64 0
  %117 = icmp ne ptr %115, %116
  br i1 %117, label %118, label %120

118:                                              ; preds = %112
  %119 = load ptr, ptr %19, align 8, !tbaa !9
  call void @CRYPTO_free(ptr noundef %119, ptr noundef @.str.1, i32 noundef 818)
  br label %120

120:                                              ; preds = %118, %112
  %121 = load i32, ptr %15, align 4, !tbaa !15
  store i32 %121, ptr %3, align 4
  store i32 1, ptr %20, align 4
  br label %122

122:                                              ; preds = %120, %30
  call void @llvm.lifetime.end.p0(i64 8, ptr %19) #5
  call void @llvm.lifetime.end.p0(i64 16, ptr %18) #5
  call void @llvm.lifetime.end.p0(i64 4, ptr %17) #5
  call void @llvm.lifetime.end.p0(i64 4, ptr %16) #5
  call void @llvm.lifetime.end.p0(i64 4, ptr %15) #5
  call void @llvm.lifetime.end.p0(i64 8, ptr %14) #5
  call void @llvm.lifetime.end.p0(i64 8, ptr %13) #5
  call void @llvm.lifetime.end.p0(i64 8, ptr %12) #5
  call void @llvm.lifetime.end.p0(i64 8, ptr %11) #5
  call void @llvm.lifetime.end.p0(i64 64, ptr %10) #5
  call void @llvm.lifetime.end.p0(i64 8, ptr %9) #5
  call void @llvm.lifetime.end.p0(i64 64, ptr %8) #5
  call void @llvm.lifetime.end.p0(i64 8, ptr %7) #5
  call void @llvm.lifetime.end.p0(i64 8, ptr %6) #5
  %123 = load i32, ptr %3, align 4
  ret i32 %123
}