; Function Attrs: nounwind uwtable
define dso_local range(i32 0, 2) i32 @tls13_update_key(ptr noundef %0, i32 noundef %1) local_unnamed_addr #0 {
  %3 = alloca [64 x i8], align 16
  %4 = alloca [64 x i8], align 16
  %5 = alloca i64, align 8
  %6 = alloca i64, align 8
  %7 = alloca i64, align 8
  %8 = alloca [16 x i8], align 16
  %9 = alloca ptr, align 8
  %10 = tail call ptr @ssl_handshake_md(ptr noundef %0) #4
  call void @llvm.lifetime.start.p0(i64 64, ptr nonnull %3) #4
  call void @llvm.lifetime.start.p0(i64 64, ptr nonnull %4) #4
  call void @llvm.lifetime.start.p0(i64 8, ptr nonnull %5) #4
  call void @llvm.lifetime.start.p0(i64 8, ptr nonnull %6) #4
  call void @llvm.lifetime.start.p0(i64 8, ptr nonnull %7) #4
  %.not = icmp ne i32 %1, 0
  %11 = zext i1 %.not to i32
  call void @llvm.lifetime.start.p0(i64 16, ptr nonnull %8) #4
  call void @llvm.lifetime.start.p0(i64 8, ptr nonnull %9) #4
  store ptr %8, ptr %9, align 8, !tbaa !9
  %12 = call i32 @EVP_MD_get_size(ptr noundef %10) #4
  %13 = icmp slt i32 %12, 1
  br i1 %13, label %14, label %15

14:                                               ; preds = %2
  call void @ERR_new() #4
  call void @ERR_set_debug(ptr noundef nonnull @.str.1, i32 noundef 774, ptr noundef nonnull @__func__.tls13_update_key) #4
  call void (ptr, i32, i32, ptr, ...) @ossl_statem_fatal(ptr noundef %0, i32 noundef 80, i32 noundef 786691, ptr noundef null) #4
  br label %42

15:                                               ; preds = %2
  %16 = zext nneg i32 %12 to i64
  %17 = getelementptr inbounds nuw i8, ptr %0, i64 120
  %18 = load i32, ptr %17, align 8, !tbaa !119
  %19 = icmp eq i32 %18, %1
  %.030.v = select i1 %19, i64 1980, i64 1916
  %.030 = getelementptr inbounds nuw i8, ptr %0, i64 %.030.v
  %20 = getelementptr inbounds nuw i8, ptr %0, i64 880
  %21 = load ptr, ptr %20, align 8, !tbaa !105
  %22 = getelementptr inbounds nuw i8, ptr %0, i64 896
  %23 = load i32, ptr %22, align 8, !tbaa !109
  %24 = getelementptr inbounds nuw i8, ptr %0, i64 888
  %25 = load ptr, ptr %24, align 8, !tbaa !107
  %26 = call fastcc i32 @derive_secret_key_and_iv(ptr noundef %0, ptr noundef %10, ptr noundef %21, i32 noundef %23, ptr noundef %25, ptr noundef nonnull %.030, ptr noundef null, ptr noundef nonnull @tls13_update_key.application_traffic, i64 noundef 11, ptr noundef %4, ptr noundef %3, ptr noundef %5, ptr noundef %9, ptr noundef %6, ptr noundef %7)
  %.not34 = icmp eq i32 %26, 0
  %.pre = load ptr, ptr %9, align 8, !tbaa !9
  br i1 %.not34, label %40, label %27

27:                                               ; preds = %15
  call void @llvm.memcpy.p0.p0.i64(ptr nonnull align 1 %.030, ptr nonnull align 16 %4, i64 %16, i1 false)
  %28 = getelementptr inbounds nuw i8, ptr %0, i64 72
  %29 = load i32, ptr %28, align 8, !tbaa !124
  %30 = load i64, ptr %5, align 8, !tbaa !13
  %31 = load i64, ptr %6, align 8, !tbaa !13
  %32 = load ptr, ptr %20, align 8, !tbaa !105
  %33 = load i64, ptr %7, align 8, !tbaa !13
  %34 = call i32 @ssl_set_new_record_layer(ptr noundef nonnull %0, i32 noundef %29, i32 noundef %11, i32 noundef 3, ptr noundef nonnull %.030, i64 noundef %16, ptr noundef nonnull %3, i64 noundef %30, ptr noundef %.pre, i64 noundef %31, ptr noundef null, i64 noundef 0, ptr noundef %32, i64 noundef %33, i32 noundef 0, ptr noundef null, ptr noundef null, ptr noundef %10) #4
  %.not35 = icmp eq i32 %34, 0
  br i1 %.not35, label %40, label %35

35:                                               ; preds = %27
  %36 = load i32, ptr %17, align 8, !tbaa !119
  %37 = icmp eq i32 %36, %1
  %38 = select i1 %37, ptr @.str.18, ptr @.str.19
  %39 = call i32 @ssl_log_secret(ptr noundef nonnull %0, ptr noundef nonnull %38, ptr noundef nonnull %4, i64 noundef %16) #4
  %.not36 = icmp ne i32 %39, 0
  %spec.select = zext i1 %.not36 to i32
  br label %40

40:                                               ; preds = %35, %27, %15
  %.031 = phi i32 [ 0, %27 ], [ 0, %15 ], [ %spec.select, %35 ]
  call void @OPENSSL_cleanse(ptr noundef nonnull %3, i64 noundef 64) #4
  call void @OPENSSL_cleanse(ptr noundef nonnull %4, i64 noundef 64) #4
  %.not37 = icmp eq ptr %.pre, %8
  br i1 %.not37, label %42, label %41

41:                                               ; preds = %40
  call void @CRYPTO_free(ptr noundef %.pre, ptr noundef nonnull @.str.1, i32 noundef 818) #4
  br label %42

42:                                               ; preds = %40, %41, %14
  %.0 = phi i32 [ 0, %14 ], [ %.031, %41 ], [ %.031, %40 ]
  call void @llvm.lifetime.end.p0(i64 8, ptr nonnull %9) #4
  call void @llvm.lifetime.end.p0(i64 16, ptr nonnull %8) #4
  call void @llvm.lifetime.end.p0(i64 8, ptr nonnull %7) #4
  call void @llvm.lifetime.end.p0(i64 8, ptr nonnull %6) #4
  call void @llvm.lifetime.end.p0(i64 8, ptr nonnull %5) #4
  call void @llvm.lifetime.end.p0(i64 64, ptr nonnull %4) #4
  call void @llvm.lifetime.end.p0(i64 64, ptr nonnull %3) #4
  ret i32 %.0
}